; Function Attrs: mustprogress uwtable
define hidden void @_ZN6google8protobuf8compiler4java17ClassNameResolver22GetDescriptorClassNameB5cxx11EPKNS0_14FileDescriptorE(ptr noalias sret(%"class.std::__cxx11::basic_string") align 8 %agg.result, ptr noundef nonnull align 8 dereferenceable(112) %this, ptr noundef %file) local_unnamed_addr #3 align 2 personality ptr @__gxx_personality_v0 {
entry:
  %ref.tmp = alloca %"class.absl::lts_20230802::AlphaNum", align 8
  %ref.tmp2 = alloca %"class.std::__cxx11::basic_string", align 8
  %ref.tmp3 = alloca %"class.absl::lts_20230802::AlphaNum", align 8
  %opensource_runtime = getelementptr inbounds nuw i8, ptr %this, i64 4
  %0 = load i8, ptr %opensource_runtime, align 4
  %tobool = trunc i8 %0 to i1
  br i1 %tobool, label %if.then, label %invoke.cont4

if.then:                                          ; preds = %entry
  tail call void @_ZN6google8protobuf8compiler4java17ClassNameResolver25GetFileImmutableClassNameB5cxx11EPKNS0_14FileDescriptorE(ptr sret(%"class.std::__cxx11::basic_string") align 8 %agg.result, ptr noundef nonnull align 8 dereferenceable(112) %this, ptr noundef %file)
  br label %return

invoke.cont4:                                     ; preds = %entry
  call void @_ZN6google8protobuf8compiler4java17ClassNameResolver25GetFileImmutableClassNameB5cxx11EPKNS0_14FileDescriptorE(ptr nonnull sret(%"class.std::__cxx11::basic_string") align 8 %ref.tmp2, ptr noundef nonnull align 8 dereferenceable(112) %this, ptr noundef %file)
  %call.i = call { i64, ptr } @_ZNKSt7__cxx1112basic_stringIcSt11char_traitsIcESaIcEEcvSt17basic_string_viewIcS2_EEv(ptr noundef nonnull align 8 dereferenceable(32) %ref.tmp2) #18
  %1 = extractvalue { i64, ptr } %call.i, 0
  store i64 %1, ptr %ref.tmp, align 8
  %2 = getelementptr inbounds nuw i8, ptr %ref.tmp, i64 8
  %3 = extractvalue { i64, ptr } %call.i, 1
  store ptr %3, ptr %2, align 8
  store i64 19, ptr %ref.tmp3, align 8
  %4 = getelementptr inbounds nuw i8, ptr %ref.tmp3, i64 8
  store ptr @.str.2, ptr %4, align 8
  invoke void @_ZN4absl12lts_202308026StrCatB5cxx11ERKNS0_8AlphaNumES3_(ptr sret(%"class.std::__cxx11::basic_string") align 8 %agg.result, ptr noundef nonnull align 8 dereferenceable(48) %ref.tmp, ptr noundef nonnull align 8 dereferenceable(48) %ref.tmp3)
          to label %invoke.cont5 unwind label %lpad

invoke.cont5:                                     ; preds = %invoke.cont4
  call void @_ZNSt7__cxx1112basic_stringIcSt11char_traitsIcESaIcEED1Ev(ptr noundef nonnull align 8 dereferenceable(32) %ref.tmp2) #18
  br label %return

lpad:                                             ; preds = %invoke.cont4
  %5 = landingpad { ptr, i32 }
          cleanup
  call void @_ZNSt7__cxx1112basic_stringIcSt11char_traitsIcESaIcEED1Ev(ptr noundef nonnull align 8 dereferenceable(32) %ref.tmp2) #18
  resume { ptr, i32 } %5

return:                                           ; preds = %invoke.cont5, %if.then
  ret void
}